; Function Attrs: nounwind uwtable
define internal fastcc range(i32 1, 6) i32 @exec_command_parse(ptr noundef %0, i1 noundef zeroext %1, ptr noundef %2) unnamed_addr #0 {
  %4 = tail call ptr @psql_scan_slash_option(ptr noundef %0, i32 noundef 0, ptr noundef null, i1 noundef zeroext false) #16
  br i1 %1, label %5, label %8

5:                                                ; preds = %3
  tail call void @clean_extended_state() #16
  %.not = icmp eq ptr %4, null
  br i1 %.not, label %6, label %7

6:                                                ; preds = %5
  tail call void (i32, i32, ptr, ...) @pg_log_generic(i32 noundef 4, i32 noundef 0, ptr noundef nonnull @.str.157, ptr noundef %2) #16
  br label %ignore_slash_options.exit

7:                                                ; preds = %5
  store ptr %4, ptr getelementptr inbounds nuw (i8, ptr @pset, i64 264), align 8
  store i32 2, ptr getelementptr inbounds nuw (i8, ptr @pset, i64 244), align 4
  br label %ignore_slash_options.exit

8:                                                ; preds = %3
  %.not2.i = icmp eq ptr %4, null
  br i1 %.not2.i, label %ignore_slash_options.exit, label %.lr.ph.i

.lr.ph.i:                                         ; preds = %8, %.lr.ph.i
  %9 = phi ptr [ %10, %.lr.ph.i ], [ %4, %8 ]
  tail call void @free(ptr noundef nonnull %9) #16
  %10 = tail call ptr @psql_scan_slash_option(ptr noundef %0, i32 noundef 0, ptr noundef null, i1 noundef zeroext false) #16
  %.not.i = icmp eq ptr %10, null
  br i1 %.not.i, label %ignore_slash_options.exit, label %.lr.ph.i, !llvm.loop !10

ignore_slash_options.exit:                        ; preds = %.lr.ph.i, %8, %6, %7
  %.1 = phi i32 [ 1, %7 ], [ 5, %6 ], [ 2, %8 ], [ 2, %.lr.ph.i ]
  ret i32 %.1
}